; Function Attrs: nounwind uwtable
define hidden void @_glfwSetWindowMousePassthroughX11(ptr noundef readonly captures(none) %0, i32 noundef %1) local_unnamed_addr #0 {
  %3 = load i32, ptr getelementptr inbounds nuw (i8, ptr @_glfw, i64 142680), align 8, !tbaa !262
  %.not = icmp eq i32 %3, 0
  br i1 %.not, label %19, label %4

4:                                                ; preds = %2
  %.not4 = icmp eq i32 %1, 0
  br i1 %.not4, label %14, label %5

5:                                                ; preds = %4
  %6 = load ptr, ptr getelementptr inbounds nuw (i8, ptr @_glfw, i64 141448), align 8, !tbaa !251
  %7 = tail call ptr %6() #17
  %8 = load ptr, ptr getelementptr inbounds nuw (i8, ptr @_glfw, i64 142720), align 8, !tbaa !252
  %9 = load ptr, ptr getelementptr inbounds nuw (i8, ptr @_glfw, i64 137840), align 8, !tbaa !93
  %10 = getelementptr inbounds nuw i8, ptr %0, i64 1248
  %11 = load i64, ptr %10, align 8, !tbaa !140
  tail call void %8(ptr noundef %9, i64 noundef %11, i32 noundef 2, i32 noundef 0, i32 noundef 0, ptr noundef %7, i32 noundef 0) #17
  %12 = load ptr, ptr getelementptr inbounds nuw (i8, ptr @_glfw, i64 141496), align 8, !tbaa !253
  %13 = tail call i32 %12(ptr noundef %7) #17
  br label %19

14:                                               ; preds = %4
  %15 = load ptr, ptr getelementptr inbounds nuw (i8, ptr @_glfw, i64 142736), align 8, !tbaa !263
  %16 = load ptr, ptr getelementptr inbounds nuw (i8, ptr @_glfw, i64 137840), align 8, !tbaa !93
  %17 = getelementptr inbounds nuw i8, ptr %0, i64 1248
  %18 = load i64, ptr %17, align 8, !tbaa !140
  tail call void %15(ptr noundef %16, i64 noundef %18, i32 noundef 2, i32 noundef 0, i32 noundef 0, i64 noundef 0, i32 noundef 0) #17
  br label %19

19:                                               ; preds = %2, %14, %5
  ret void
}